target datalayout = "e-m:e-p270:32:32-p271:32:32-p272:64:64-i64:64-i128:128-f80:128-n8:16:32:64-S128"
target triple = "x86_64-pc-linux-gnu"

%"class.rocksdb::MemTableListVersion" = type { %"class.std::__cxx11::list", %"class.std::__cxx11::list", i32, i64, i32, ptr, i64 }
%"class.std::__cxx11::list" = type { %"class.std::__cxx11::_List_base" }
%"class.std::__cxx11::_List_base" = type { %"struct.std::__cxx11::_List_base<rocksdb::ReadOnlyMemTable *, std::allocator<rocksdb::ReadOnlyMemTable *>>::_List_impl" }
%"struct.std::__cxx11::_List_base<rocksdb::ReadOnlyMemTable *, std::allocator<rocksdb::ReadOnlyMemTable *>>::_List_impl" = type { %"struct.std::__detail::_List_node_header" }
%"struct.std::__detail::_List_node_header" = type { %"struct.std::__detail::_List_node_base", i64 }
%"struct.std::__detail::_List_node_base" = type { ptr, ptr }
%"struct.std::_List_const_iterator" = type { ptr }
%"struct.std::_List_node" = type { %"struct.std::__detail::_List_node_base", %"struct.__gnu_cxx::__aligned_membuf" }
%"struct.__gnu_cxx::__aligned_membuf" = type { [8 x i8] }

; Function Attrs: mustprogress nounwind uwtable
define linkonce_odr noundef ptr @_ZNK9__gnu_cxx16__aligned_membufIPN7rocksdb16ReadOnlyMemTableEE7_M_addrEv(ptr noundef nonnull align 8 dereferenceable(8) %0) #3 comdat align 2 {
  %2 = alloca ptr, align 8
  store ptr %0, ptr %2, align 8, !tbaa !758
  %3 = load ptr, ptr %2, align 8
  %4 = getelementptr inbounds nuw %"struct.__gnu_cxx::__aligned_membuf", ptr %3, i32 0, i32 0
  ret ptr %4
}

; Function Attrs: mustprogress nounwind uwtable
define linkonce_odr noundef ptr @_ZNK9__gnu_cxx16__aligned_membufIPN7rocksdb16ReadOnlyMemTableEE6_M_ptrEv(ptr noundef nonnull align 8 dereferenceable(8) %0) #3 comdat align 2 {
  %2 = alloca ptr, align 8
  store ptr %0, ptr %2, align 8, !tbaa !758
  %3 = load ptr, ptr %2, align 8
  %4 = call noundef ptr @_ZNK9__gnu_cxx16__aligned_membufIPN7rocksdb16ReadOnlyMemTableEE7_M_addrEv(ptr noundef nonnull align 8 dereferenceable(8) %3) #4
  ret ptr %4
}

; Function Attrs: mustprogress nounwind uwtable
define linkonce_odr noundef i64 @_ZNKSt7__cxx1110_List_baseIPN7rocksdb16ReadOnlyMemTableESaIS3_EE11_M_get_sizeEv(ptr noundef nonnull align 8 dereferenceable(24) %0) #3 comdat align 2 {
  %2 = alloca ptr, align 8
  store ptr %0, ptr %2, align 8, !tbaa !138
  %3 = load ptr, ptr %2, align 8
  %4 = getelementptr inbounds nuw %"class.std::__cxx11::_List_base", ptr %3, i32 0, i32 0
  %5 = getelementptr inbounds nuw %"struct.std::__cxx11::_List_base<rocksdb::ReadOnlyMemTable *, std::allocator<rocksdb::ReadOnlyMemTable *>>::_List_impl", ptr %4, i32 0, i32 0
  %6 = getelementptr inbounds nuw %"struct.std::__detail::_List_node_header", ptr %5, i32 0, i32 1
  %7 = load i64, ptr %6, align 8, !tbaa !1093
  ret i64 %7
}

; Function Attrs: mustprogress nounwind uwtable
define linkonce_odr noundef nonnull align 8 dereferenceable(8) ptr @_ZNSt20_List_const_iteratorIPN7rocksdb16ReadOnlyMemTableEEmmEv(ptr noundef nonnull align 8 dereferenceable(8) %0) #3 comdat align 2 {
  %2 = alloca ptr, align 8
  store ptr %0, ptr %2, align 8, !tbaa !248
  %3 = load ptr, ptr %2, align 8
  %4 = getelementptr inbounds nuw %"struct.std::_List_const_iterator", ptr %3, i32 0, i32 0
  %5 = load ptr, ptr %4, align 8, !tbaa !250
  %6 = getelementptr inbounds nuw %"struct.std::__detail::_List_node_base", ptr %5, i32 0, i32 1
  %7 = load ptr, ptr %6, align 8, !tbaa !261
  %8 = getelementptr inbounds nuw %"struct.std::_List_const_iterator", ptr %3, i32 0, i32 0
  store ptr %7, ptr %8, align 8, !tbaa !250
  ret ptr %3
}

; Function Attrs: mustprogress nounwind uwtable
define linkonce_odr noundef ptr @_ZNKSt10_List_nodeIPN7rocksdb16ReadOnlyMemTableEE9_M_valptrEv(ptr noundef nonnull align 8 dereferenceable(24) %0) #3 comdat align 2 {
  %2 = alloca ptr, align 8
  store ptr %0, ptr %2, align 8, !tbaa !755
  %3 = load ptr, ptr %2, align 8
  %4 = getelementptr inbounds nuw %"struct.std::_List_node", ptr %3, i32 0, i32 1
  %5 = call noundef ptr @_ZNK9__gnu_cxx16__aligned_membufIPN7rocksdb16ReadOnlyMemTableEE6_M_ptrEv(ptr noundef nonnull align 8 dereferenceable(8) %4) #4
  ret ptr %5
}

; Function Attrs: mustprogress nounwind uwtable
define linkonce_odr void @_ZNSt20_List_const_iteratorIPN7rocksdb16ReadOnlyMemTableEEC2EPKNSt8__detail15_List_node_baseE(ptr noundef nonnull align 8 dereferenceable(8) %0, ptr noundef %1) unnamed_addr #3 comdat align 2 {
  %3 = alloca ptr, align 8
  %4 = alloca ptr, align 8
  store ptr %0, ptr %3, align 8, !tbaa !248
  store ptr %1, ptr %4, align 8, !tbaa !259
  %5 = load ptr, ptr %3, align 8
  %6 = getelementptr inbounds nuw %"struct.std::_List_const_iterator", ptr %5, i32 0, i32 0
  %7 = load ptr, ptr %4, align 8, !tbaa !259
  store ptr %7, ptr %6, align 8, !tbaa !250
  ret void
}

; Function Attrs: noinline noreturn nounwind uwtable
define linkonce_odr hidden void @__clang_call_terminate(ptr noundef %0) #14 comdat {
  %2 = call ptr @__cxa_begin_catch(ptr %0) #4
  call void @_ZSt9terminatev() #19
  unreachable
}

; Function Attrs: mustprogress uwtable
define linkonce_odr noundef i64 @_ZNKSt7__cxx114listIPN7rocksdb16ReadOnlyMemTableESaIS3_EE13_M_node_countEv(ptr noundef nonnull align 8 dereferenceable(24) %0) #5 comdat align 2 {
  %2 = alloca ptr, align 8
  store ptr %0, ptr %2, align 8, !tbaa !63
  %3 = load ptr, ptr %2, align 8
  %4 = call noundef i64 @_ZNKSt7__cxx1110_List_baseIPN7rocksdb16ReadOnlyMemTableESaIS3_EE11_M_get_sizeEv(ptr noundef nonnull align 8 dereferenceable(24) %3)
  ret i64 %4
}

; Function Attrs: mustprogress nounwind uwtable
define linkonce_odr noundef nonnull align 8 dereferenceable(8) ptr @_ZNKSt7__cxx114listIPN7rocksdb16ReadOnlyMemTableESaIS3_EE4backEv(ptr noundef nonnull align 8 dereferenceable(24) %0) #3 comdat align 2 {
  %2 = alloca ptr, align 8
  %3 = alloca %"struct.std::_List_const_iterator", align 8
  store ptr %0, ptr %2, align 8, !tbaa !63
  %4 = load ptr, ptr %2, align 8
  call void @llvm.lifetime.start.p0(i64 8, ptr %3) #4
  %5 = call ptr @_ZNKSt7__cxx114listIPN7rocksdb16ReadOnlyMemTableESaIS3_EE3endEv(ptr noundef nonnull align 8 dereferenceable(24) %4) #4
  %6 = getelementptr inbounds nuw %"struct.std::_List_const_iterator", ptr %3, i32 0, i32 0
  store ptr %5, ptr %6, align 8
  %7 = call noundef nonnull align 8 dereferenceable(8) ptr @_ZNSt20_List_const_iteratorIPN7rocksdb16ReadOnlyMemTableEEmmEv(ptr noundef nonnull align 8 dereferenceable(8) %3) #4
  %8 = call noundef nonnull align 8 dereferenceable(8) ptr @_ZNKSt20_List_const_iteratorIPN7rocksdb16ReadOnlyMemTableEEdeEv(ptr noundef nonnull align 8 dereferenceable(8) %3) #4
  call void @llvm.lifetime.end.p0(i64 8, ptr %3) #4
  ret ptr %8
}

; Function Attrs: mustprogress nounwind uwtable
define linkonce_odr noundef zeroext i1 @_ZNKSt7__cxx114listIPN7rocksdb16ReadOnlyMemTableESaIS3_EE5emptyEv(ptr noundef nonnull align 8 dereferenceable(24) %0) #3 comdat align 2 {
  %2 = alloca ptr, align 8
  store ptr %0, ptr %2, align 8, !tbaa !63
  %3 = load ptr, ptr %2, align 8
  %4 = getelementptr inbounds nuw %"class.std::__cxx11::_List_base", ptr %3, i32 0, i32 0
  %5 = getelementptr inbounds nuw %"struct.std::__cxx11::_List_base<rocksdb::ReadOnlyMemTable *, std::allocator<rocksdb::ReadOnlyMemTable *>>::_List_impl", ptr %4, i32 0, i32 0
  %6 = getelementptr inbounds nuw %"struct.std::__detail::_List_node_base", ptr %5, i32 0, i32 0
  %7 = load ptr, ptr %6, align 8, !tbaa !65
  %8 = getelementptr inbounds nuw %"class.std::__cxx11::_List_base", ptr %3, i32 0, i32 0
  %9 = getelementptr inbounds nuw %"struct.std::__cxx11::_List_base<rocksdb::ReadOnlyMemTable *, std::allocator<rocksdb::ReadOnlyMemTable *>>::_List_impl", ptr %8, i32 0, i32 0
  %10 = icmp eq ptr %7, %9
  ret i1 %10
}

; Function Attrs: mustprogress nounwind uwtable
define linkonce_odr noundef nonnull align 8 dereferenceable(8) ptr @_ZNSt20_List_const_iteratorIPN7rocksdb16ReadOnlyMemTableEEppEv(ptr noundef nonnull align 8 dereferenceable(8) %0) #3 comdat align 2 {
  %2 = alloca ptr, align 8
  store ptr %0, ptr %2, align 8, !tbaa !248
  %3 = load ptr, ptr %2, align 8
  %4 = getelementptr inbounds nuw %"struct.std::_List_const_iterator", ptr %3, i32 0, i32 0
  %5 = load ptr, ptr %4, align 8, !tbaa !250
  %6 = getelementptr inbounds nuw %"struct.std::__detail::_List_node_base", ptr %5, i32 0, i32 0
  %7 = load ptr, ptr %6, align 8, !tbaa !65
  %8 = getelementptr inbounds nuw %"struct.std::_List_const_iterator", ptr %3, i32 0, i32 0
  store ptr %7, ptr %8, align 8, !tbaa !250
  ret ptr %3
}

; Function Attrs: mustprogress nounwind uwtable
define linkonce_odr noundef nonnull align 8 dereferenceable(8) ptr @_ZNKSt20_List_const_iteratorIPN7rocksdb16ReadOnlyMemTableEEdeEv(ptr noundef nonnull align 8 dereferenceable(8) %0) #3 comdat align 2 personality ptr @__gxx_personality_v0 {
  %2 = alloca ptr, align 8
  store ptr %0, ptr %2, align 8, !tbaa !248
  %3 = load ptr, ptr %2, align 8
  %4 = getelementptr inbounds nuw %"struct.std::_List_const_iterator", ptr %3, i32 0, i32 0
  %5 = load ptr, ptr %4, align 8, !tbaa !250
  %6 = invoke noundef ptr @_ZNKSt10_List_nodeIPN7rocksdb16ReadOnlyMemTableEE9_M_valptrEv(ptr noundef nonnull align 8 dereferenceable(24) %5)
          to label %7 unwind label %8

7:                                                ; preds = %1
  ret ptr %6

8:                                                ; preds = %1
  %9 = landingpad { ptr, i32 }
          catch ptr null
  %10 = extractvalue { ptr, i32 } %9, 0
  call void @__clang_call_terminate(ptr %10) #19
  unreachable
}

; Function Attrs: mustprogress nounwind uwtable
define linkonce_odr noundef zeroext i1 @_ZStneRKSt20_List_const_iteratorIPN7rocksdb16ReadOnlyMemTableEES5_(ptr noundef nonnull align 8 dereferenceable(8) %0, ptr noundef nonnull align 8 dereferenceable(8) %1) #3 comdat {
  %3 = alloca ptr, align 8
  %4 = alloca ptr, align 8
  store ptr %0, ptr %3, align 8, !tbaa !248
  store ptr %1, ptr %4, align 8, !tbaa !248
  %5 = load ptr, ptr %3, align 8, !tbaa !248
  %6 = getelementptr inbounds nuw %"struct.std::_List_const_iterator", ptr %5, i32 0, i32 0
  %7 = load ptr, ptr %6, align 8, !tbaa !250
  %8 = load ptr, ptr %4, align 8, !tbaa !248
  %9 = getelementptr inbounds nuw %"struct.std::_List_const_iterator", ptr %8, i32 0, i32 0
  %10 = load ptr, ptr %9, align 8, !tbaa !250
  %11 = icmp ne ptr %7, %10
  ret i1 %11
}

; Function Attrs: mustprogress nounwind uwtable
define linkonce_odr ptr @_ZNKSt7__cxx114listIPN7rocksdb16ReadOnlyMemTableESaIS3_EE3endEv(ptr noundef nonnull align 8 dereferenceable(24) %0) #3 comdat align 2 {
  %2 = alloca %"struct.std::_List_const_iterator", align 8
  %3 = alloca ptr, align 8
  store ptr %0, ptr %3, align 8, !tbaa !63
  %4 = load ptr, ptr %3, align 8
  %5 = getelementptr inbounds nuw %"class.std::__cxx11::_List_base", ptr %4, i32 0, i32 0
  %6 = getelementptr inbounds nuw %"struct.std::__cxx11::_List_base<rocksdb::ReadOnlyMemTable *, std::allocator<rocksdb::ReadOnlyMemTable *>>::_List_impl", ptr %5, i32 0, i32 0
  call void @_ZNSt20_List_const_iteratorIPN7rocksdb16ReadOnlyMemTableEEC2EPKNSt8__detail15_List_node_baseE(ptr noundef nonnull align 8 dereferenceable(8) %2, ptr noundef %6) #4
  %7 = getelementptr inbounds nuw %"struct.std::_List_const_iterator", ptr %2, i32 0, i32 0
  %8 = load ptr, ptr %7, align 8
  ret ptr %8
}

; Function Attrs: mustprogress nounwind uwtable
define linkonce_odr ptr @_ZNKSt7__cxx114listIPN7rocksdb16ReadOnlyMemTableESaIS3_EE5beginEv(ptr noundef nonnull align 8 dereferenceable(24) %0) #3 comdat align 2 {
  %2 = alloca %"struct.std::_List_const_iterator", align 8
  %3 = alloca ptr, align 8
  store ptr %0, ptr %3, align 8, !tbaa !63
  %4 = load ptr, ptr %3, align 8
  %5 = getelementptr inbounds nuw %"class.std::__cxx11::_List_base", ptr %4, i32 0, i32 0
  %6 = getelementptr inbounds nuw %"struct.std::__cxx11::_List_base<rocksdb::ReadOnlyMemTable *, std::allocator<rocksdb::ReadOnlyMemTable *>>::_List_impl", ptr %5, i32 0, i32 0
  %7 = getelementptr inbounds nuw %"struct.std::__detail::_List_node_base", ptr %6, i32 0, i32 0
  %8 = load ptr, ptr %7, align 8, !tbaa !65
  call void @_ZNSt20_List_const_iteratorIPN7rocksdb16ReadOnlyMemTableEEC2EPKNSt8__detail15_List_node_baseE(ptr noundef nonnull align 8 dereferenceable(8) %2, ptr noundef %8) #4
  %9 = getelementptr inbounds nuw %"struct.std::_List_const_iterator", ptr %2, i32 0, i32 0
  %10 = load ptr, ptr %9, align 8
  ret ptr %10
}

; Function Attrs: mustprogress nounwind uwtable
define linkonce_odr noundef i64 @_ZNKSt7__cxx114listIPN7rocksdb16ReadOnlyMemTableESaIS3_EE4sizeEv(ptr noundef nonnull align 8 dereferenceable(24) %0) #3 comdat align 2 personality ptr @__gxx_personality_v0 {
  %2 = alloca ptr, align 8
  store ptr %0, ptr %2, align 8, !tbaa !63
  %3 = load ptr, ptr %2, align 8
  %4 = invoke noundef i64 @_ZNKSt7__cxx114listIPN7rocksdb16ReadOnlyMemTableESaIS3_EE13_M_node_countEv(ptr noundef nonnull align 8 dereferenceable(24) %3)
          to label %5 unwind label %6

5:                                                ; preds = %1
  ret i64 %4

6:                                                ; preds = %1
  %7 = landingpad { ptr, i32 }
          catch ptr null
  %8 = extractvalue { ptr, i32 } %7, 0
  call void @__clang_call_terminate(ptr %8) #19
  unreachable
}

; Function Attrs: mustprogress uwtable
define noundef i64 @_ZNK7rocksdb19MemTableListVersion33MemoryAllocatedBytesExcludingLastEv(ptr noundef nonnull align 8 dereferenceable(88) %0) #5 align 2 {
  %2 = alloca ptr, align 8
  %3 = alloca i64, align 8
  %4 = alloca ptr, align 8
  %5 = alloca %"struct.std::_List_const_iterator", align 8
  %6 = alloca %"struct.std::_List_const_iterator", align 8
  %7 = alloca ptr, align 8
  %8 = alloca ptr, align 8
  %9 = alloca %"struct.std::_List_const_iterator", align 8
  %10 = alloca %"struct.std::_List_const_iterator", align 8
  %11 = alloca ptr, align 8
  store ptr %0, ptr %2, align 8, !tbaa !48
  %12 = load ptr, ptr %2, align 8
  call void @llvm.lifetime.start.p0(i64 8, ptr %3) #4
  store i64 0, ptr %3, align 8, !tbaa !4
  call void @llvm.lifetime.start.p0(i64 8, ptr %4) #4
  %13 = getelementptr inbounds nuw %"class.rocksdb::MemTableListVersion", ptr %12, i32 0, i32 0
  store ptr %13, ptr %4, align 8, !tbaa !63
  call void @llvm.lifetime.start.p0(i64 8, ptr %5) #4
  %14 = load ptr, ptr %4, align 8, !tbaa !63
  %15 = call ptr @_ZNKSt7__cxx114listIPN7rocksdb16ReadOnlyMemTableESaIS3_EE5beginEv(ptr noundef nonnull align 8 dereferenceable(24) %14) #4
  %16 = getelementptr inbounds nuw %"struct.std::_List_const_iterator", ptr %5, i32 0, i32 0
  store ptr %15, ptr %16, align 8
  call void @llvm.lifetime.start.p0(i64 8, ptr %6) #4
  %17 = load ptr, ptr %4, align 8, !tbaa !63
  %18 = call ptr @_ZNKSt7__cxx114listIPN7rocksdb16ReadOnlyMemTableESaIS3_EE3endEv(ptr noundef nonnull align 8 dereferenceable(24) %17) #4
  %19 = getelementptr inbounds nuw %"struct.std::_List_const_iterator", ptr %6, i32 0, i32 0
  store ptr %18, ptr %19, align 8
  br label %20

20:                                               ; preds = %33, %1
  %21 = call noundef zeroext i1 @_ZStneRKSt20_List_const_iteratorIPN7rocksdb16ReadOnlyMemTableEES5_(ptr noundef nonnull align 8 dereferenceable(8) %5, ptr noundef nonnull align 8 dereferenceable(8) %6) #4
  br i1 %21, label %23, label %22

22:                                               ; preds = %20
  call void @llvm.lifetime.end.p0(i64 8, ptr %6) #4
  call void @llvm.lifetime.end.p0(i64 8, ptr %5) #4
  call void @llvm.lifetime.end.p0(i64 8, ptr %4) #4
  br label %35

23:                                               ; preds = %20
  call void @llvm.lifetime.start.p0(i64 8, ptr %7) #4
  %24 = call noundef nonnull align 8 dereferenceable(8) ptr @_ZNKSt20_List_const_iteratorIPN7rocksdb16ReadOnlyMemTableEEdeEv(ptr noundef nonnull align 8 dereferenceable(8) %5) #4
  store ptr %24, ptr %7, align 8, !tbaa !66
  %25 = load ptr, ptr %7, align 8, !tbaa !66
  %26 = load ptr, ptr %25, align 8, !tbaa !50
  %27 = load ptr, ptr %26, align 8, !tbaa !52
  %28 = getelementptr inbounds ptr, ptr %27, i64 4
  %29 = load ptr, ptr %28, align 8
  %30 = call noundef i64 %29(ptr noundef nonnull align 8 dereferenceable(560) %26)
  %31 = load i64, ptr %3, align 8, !tbaa !4
  %32 = add i64 %31, %30
  store i64 %32, ptr %3, align 8, !tbaa !4
  call void @llvm.lifetime.end.p0(i64 8, ptr %7) #4
  br label %33

33:                                               ; preds = %23
  %34 = call noundef nonnull align 8 dereferenceable(8) ptr @_ZNSt20_List_const_iteratorIPN7rocksdb16ReadOnlyMemTableEEppEv(ptr noundef nonnull align 8 dereferenceable(8) %5) #4
  br label %20

35:                                               ; preds = %22
  call void @llvm.lifetime.start.p0(i64 8, ptr %8) #4
  %36 = getelementptr inbounds nuw %"class.rocksdb::MemTableListVersion", ptr %12, i32 0, i32 1
  store ptr %36, ptr %8, align 8, !tbaa !63
  call void @llvm.lifetime.start.p0(i64 8, ptr %9) #4
  %37 = load ptr, ptr %8, align 8, !tbaa !63
  %38 = call ptr @_ZNKSt7__cxx114listIPN7rocksdb16ReadOnlyMemTableESaIS3_EE5beginEv(ptr noundef nonnull align 8 dereferenceable(24) %37) #4
  %39 = getelementptr inbounds nuw %"struct.std::_List_const_iterator", ptr %9, i32 0, i32 0
  store ptr %38, ptr %39, align 8
  call void @llvm.lifetime.start.p0(i64 8, ptr %10) #4
  %40 = load ptr, ptr %8, align 8, !tbaa !63
  %41 = call ptr @_ZNKSt7__cxx114listIPN7rocksdb16ReadOnlyMemTableESaIS3_EE3endEv(ptr noundef nonnull align 8 dereferenceable(24) %40) #4
  %42 = getelementptr inbounds nuw %"struct.std::_List_const_iterator", ptr %10, i32 0, i32 0
  store ptr %41, ptr %42, align 8
  br label %43

43:                                               ; preds = %56, %35
  %44 = call noundef zeroext i1 @_ZStneRKSt20_List_const_iteratorIPN7rocksdb16ReadOnlyMemTableEES5_(ptr noundef nonnull align 8 dereferenceable(8) %9, ptr noundef nonnull align 8 dereferenceable(8) %10) #4
  br i1 %44, label %46, label %45

45:                                               ; preds = %43
  call void @llvm.lifetime.end.p0(i64 8, ptr %10) #4
  call void @llvm.lifetime.end.p0(i64 8, ptr %9) #4
  call void @llvm.lifetime.end.p0(i64 8, ptr %8) #4
  br label %58

46:                                               ; preds = %43
  call void @llvm.lifetime.start.p0(i64 8, ptr %11) #4
  %47 = call noundef nonnull align 8 dereferenceable(8) ptr @_ZNKSt20_List_const_iteratorIPN7rocksdb16ReadOnlyMemTableEEdeEv(ptr noundef nonnull align 8 dereferenceable(8) %9) #4
  store ptr %47, ptr %11, align 8, !tbaa !66
  %48 = load ptr, ptr %11, align 8, !tbaa !66
  %49 = load ptr, ptr %48, align 8, !tbaa !50
  %50 = load ptr, ptr %49, align 8, !tbaa !52
  %51 = getelementptr inbounds ptr, ptr %50, i64 4
  %52 = load ptr, ptr %51, align 8
  %53 = call noundef i64 %52(ptr noundef nonnull align 8 dereferenceable(560) %49)
  %54 = load i64, ptr %3, align 8, !tbaa !4
  %55 = add i64 %54, %53
  store i64 %55, ptr %3, align 8, !tbaa !4
  call void @llvm.lifetime.end.p0(i64 8, ptr %11) #4
  br label %56

56:                                               ; preds = %46
  %57 = call noundef nonnull align 8 dereferenceable(8) ptr @_ZNSt20_List_const_iteratorIPN7rocksdb16ReadOnlyMemTableEEppEv(ptr noundef nonnull align 8 dereferenceable(8) %9) #4
  br label %43

58:                                               ; preds = %45
  %59 = getelementptr inbounds nuw %"class.rocksdb::MemTableListVersion", ptr %12, i32 0, i32 1
  %60 = call noundef zeroext i1 @_ZNKSt7__cxx114listIPN7rocksdb16ReadOnlyMemTableESaIS3_EE5emptyEv(ptr noundef nonnull align 8 dereferenceable(24) %59) #4
  br i1 %60, label %71, label %61

61:                                               ; preds = %58
  %62 = getelementptr inbounds nuw %"class.rocksdb::MemTableListVersion", ptr %12, i32 0, i32 1
  %63 = call noundef nonnull align 8 dereferenceable(8) ptr @_ZNKSt7__cxx114listIPN7rocksdb16ReadOnlyMemTableESaIS3_EE4backEv(ptr noundef nonnull align 8 dereferenceable(24) %62) #4
  %64 = load ptr, ptr %63, align 8, !tbaa !50
  %65 = load ptr, ptr %64, align 8, !tbaa !52
  %66 = getelementptr inbounds ptr, ptr %65, i64 4
  %67 = load ptr, ptr %66, align 8
  %68 = call noundef i64 %67(ptr noundef nonnull align 8 dereferenceable(560) %64)
  %69 = load i64, ptr %3, align 8, !tbaa !4
  %70 = sub i64 %69, %68
  store i64 %70, ptr %3, align 8, !tbaa !4
  br label %71

71:                                               ; preds = %61, %58
  %72 = load i64, ptr %3, align 8, !tbaa !4
  call void @llvm.lifetime.end.p0(i64 8, ptr %3) #4
  ret i64 %72
}

; Function Attrs: mustprogress uwtable
define noundef zeroext i1 @_ZN7rocksdb19MemTableListVersion21MemtableLimitExceededEm(ptr noundef nonnull align 8 dereferenceable(88) %0, i64 noundef %1) #5 align 2 {
  %3 = alloca i1, align 1
  %4 = alloca ptr, align 8
  %5 = alloca i64, align 8
  store ptr %0, ptr %4, align 8, !tbaa !48
  store i64 %1, ptr %5, align 8, !tbaa !4
  %6 = load ptr, ptr %4, align 8
  %7 = getelementptr inbounds nuw %"class.rocksdb::MemTableListVersion", ptr %6, i32 0, i32 3
  %8 = load i64, ptr %7, align 8, !tbaa !131
  %9 = icmp sgt i64 %8, 0
  br i1 %9, label %10, label %17

10:                                               ; preds = %2
  %11 = call noundef i64 @_ZNK7rocksdb19MemTableListVersion33MemoryAllocatedBytesExcludingLastEv(ptr noundef nonnull align 8 dereferenceable(88) %6)
  %12 = load i64, ptr %5, align 8, !tbaa !4
  %13 = add i64 %11, %12
  %14 = getelementptr inbounds nuw %"class.rocksdb::MemTableListVersion", ptr %6, i32 0, i32 3
  %15 = load i64, ptr %14, align 8, !tbaa !131
  %16 = icmp uge i64 %13, %15
  store i1 %16, ptr %3, align 1
  br label %32

17:                                               ; preds = %2
  %18 = getelementptr inbounds nuw %"class.rocksdb::MemTableListVersion", ptr %6, i32 0, i32 2
  %19 = load i32, ptr %18, align 8, !tbaa !130
  %20 = icmp sgt i32 %19, 0
  br i1 %20, label %21, label %31

21:                                               ; preds = %17
  %22 = getelementptr inbounds nuw %"class.rocksdb::MemTableListVersion", ptr %6, i32 0, i32 0
  %23 = call noundef i64 @_ZNKSt7__cxx114listIPN7rocksdb16ReadOnlyMemTableESaIS3_EE4sizeEv(ptr noundef nonnull align 8 dereferenceable(24) %22) #4
  %24 = getelementptr inbounds nuw %"class.rocksdb::MemTableListVersion", ptr %6, i32 0, i32 1
  %25 = call noundef i64 @_ZNKSt7__cxx114listIPN7rocksdb16ReadOnlyMemTableESaIS3_EE4sizeEv(ptr noundef nonnull align 8 dereferenceable(24) %24) #4
  %26 = add i64 %23, %25
  %27 = getelementptr inbounds nuw %"class.rocksdb::MemTableListVersion", ptr %6, i32 0, i32 2
  %28 = load i32, ptr %27, align 8, !tbaa !130
  %29 = sext i32 %28 to i64
  %30 = icmp ugt i64 %26, %29
  store i1 %30, ptr %3, align 1
  br label %32

31:                                               ; preds = %17
  store i1 false, ptr %3, align 1
  br label %32

32:                                               ; preds = %31, %21, %10
  %33 = load i1, ptr %3, align 1
  ret i1 %33
}