; Function Attrs: mustprogress uwtable
define noundef zeroext i1 @_ZN7rocksdb19MemTableListVersion21MemtableLimitExceededEm(ptr noundef nonnull readonly align 8 dereferenceable(88) %0, i64 noundef %1) local_unnamed_addr #4 align 2 personality ptr @__gxx_personality_v0 {
  %3 = getelementptr inbounds nuw i8, ptr %0, i64 56
  %4 = load i64, ptr %3, align 8, !tbaa !101
  %5 = icmp sgt i64 %4, 0
  br i1 %5, label %6, label %36

6:                                                ; preds = %2
  %.sroa.014.018.i = load ptr, ptr %0, align 8, !tbaa !18
  %.not19.i = icmp eq ptr %.sroa.014.018.i, %0
  br i1 %.not19.i, label %._crit_edge.i, label %.lr.ph.i

._crit_edge.i:                                    ; preds = %.lr.ph.i, %6
  %.0.lcssa.i = phi i64 [ 0, %6 ], [ %14, %.lr.ph.i ]
  %7 = getelementptr inbounds nuw i8, ptr %0, i64 24
  %.sroa.010.022.i = load ptr, ptr %7, align 8, !tbaa !18
  %.not1723.i = icmp eq ptr %.sroa.010.022.i, %7
  br i1 %.not1723.i, label %_ZNK7rocksdb19MemTableListVersion33MemoryAllocatedBytesExcludingLastEv.exit, label %.lr.ph27.i

.lr.ph.i:                                         ; preds = %6, %.lr.ph.i
  %.sroa.014.021.i = phi ptr [ %.sroa.014.0.i, %.lr.ph.i ], [ %.sroa.014.018.i, %6 ]
  %.020.i = phi i64 [ %14, %.lr.ph.i ], [ 0, %6 ]
  %8 = getelementptr inbounds nuw i8, ptr %.sroa.014.021.i, i64 16
  %9 = load ptr, ptr %8, align 8, !tbaa !21
  %10 = load ptr, ptr %9, align 8, !tbaa !27
  %11 = getelementptr inbounds nuw i8, ptr %10, i64 32
  %12 = load ptr, ptr %11, align 8
  %13 = tail call noundef i64 %12(ptr noundef nonnull align 8 dereferenceable(560) %9)
  %14 = add i64 %13, %.020.i
  %.sroa.014.0.i = load ptr, ptr %.sroa.014.021.i, align 8, !tbaa !18
  %.not.i = icmp eq ptr %.sroa.014.0.i, %0
  br i1 %.not.i, label %._crit_edge.i, label %.lr.ph.i

._crit_edge28.i:                                  ; preds = %.lr.ph27.i
  %.pre.i = load ptr, ptr %7, align 8, !tbaa !18
  %15 = icmp eq ptr %.pre.i, %7
  br i1 %15, label %_ZNK7rocksdb19MemTableListVersion33MemoryAllocatedBytesExcludingLastEv.exit, label %23

.lr.ph27.i:                                       ; preds = %._crit_edge.i, %.lr.ph27.i
  %.sroa.010.025.i = phi ptr [ %.sroa.010.0.i, %.lr.ph27.i ], [ %.sroa.010.022.i, %._crit_edge.i ]
  %.124.i = phi i64 [ %22, %.lr.ph27.i ], [ %.0.lcssa.i, %._crit_edge.i ]
  %16 = getelementptr inbounds nuw i8, ptr %.sroa.010.025.i, i64 16
  %17 = load ptr, ptr %16, align 8, !tbaa !21
  %18 = load ptr, ptr %17, align 8, !tbaa !27
  %19 = getelementptr inbounds nuw i8, ptr %18, i64 32
  %20 = load ptr, ptr %19, align 8
  %21 = tail call noundef i64 %20(ptr noundef nonnull align 8 dereferenceable(560) %17)
  %22 = add i64 %21, %.124.i
  %.sroa.010.0.i = load ptr, ptr %.sroa.010.025.i, align 8, !tbaa !18
  %.not17.i = icmp eq ptr %.sroa.010.0.i, %7
  br i1 %.not17.i, label %._crit_edge28.i, label %.lr.ph27.i

23:                                               ; preds = %._crit_edge28.i
  %24 = getelementptr inbounds nuw i8, ptr %0, i64 32
  %25 = load ptr, ptr %24, align 8, !tbaa !98
  %26 = getelementptr inbounds nuw i8, ptr %25, i64 16
  %27 = load ptr, ptr %26, align 8, !tbaa !21
  %28 = load ptr, ptr %27, align 8, !tbaa !27
  %29 = getelementptr inbounds nuw i8, ptr %28, i64 32
  %30 = load ptr, ptr %29, align 8
  %31 = tail call noundef i64 %30(ptr noundef nonnull align 8 dereferenceable(560) %27)
  %32 = sub i64 %22, %31
  br label %_ZNK7rocksdb19MemTableListVersion33MemoryAllocatedBytesExcludingLastEv.exit

_ZNK7rocksdb19MemTableListVersion33MemoryAllocatedBytesExcludingLastEv.exit: ; preds = %._crit_edge.i, %._crit_edge28.i, %23
  %.2.i = phi i64 [ %22, %._crit_edge28.i ], [ %32, %23 ], [ %.0.lcssa.i, %._crit_edge.i ]
  %33 = add i64 %.2.i, %1
  %34 = load i64, ptr %3, align 8, !tbaa !101
  %35 = icmp uge i64 %33, %34
  br label %48

36:                                               ; preds = %2
  %37 = getelementptr inbounds nuw i8, ptr %0, i64 48
  %38 = load i32, ptr %37, align 8, !tbaa !100
  %39 = icmp sgt i32 %38, 0
  br i1 %39, label %40, label %48

40:                                               ; preds = %36
  %41 = getelementptr inbounds nuw i8, ptr %0, i64 16
  %42 = load i64, ptr %41, align 8, !tbaa !23
  %43 = getelementptr inbounds nuw i8, ptr %0, i64 40
  %44 = load i64, ptr %43, align 8, !tbaa !23
  %45 = add i64 %44, %42
  %46 = zext nneg i32 %38 to i64
  %47 = icmp ugt i64 %45, %46
  br label %48

48:                                               ; preds = %36, %40, %_ZNK7rocksdb19MemTableListVersion33MemoryAllocatedBytesExcludingLastEv.exit
  %.0 = phi i1 [ %35, %_ZNK7rocksdb19MemTableListVersion33MemoryAllocatedBytesExcludingLastEv.exit ], [ %47, %40 ], [ false, %36 ]
  ret i1 %.0
}